; Function Attrs: nounwind uwtable
define internal noundef i32 @yuv422pToYuy2Wrapper(ptr noundef readonly captures(none) %0, ptr noundef readonly captures(none) %1, ptr noundef readonly captures(none) %2, i32 noundef %3, i32 noundef returned %4, ptr noundef readonly captures(none) %5, ptr noundef readonly captures(none) %6) #3 {
  %8 = load ptr, ptr %5, align 8, !tbaa !49
  %9 = load i32, ptr %6, align 4, !tbaa !48
  %10 = mul nsw i32 %9, %3
  %11 = sext i32 %10 to i64
  %12 = getelementptr inbounds i8, ptr %8, i64 %11
  %13 = load ptr, ptr @yuv422ptoyuy2, align 8, !tbaa !51
  %14 = load ptr, ptr %1, align 8, !tbaa !49
  %15 = getelementptr inbounds nuw i8, ptr %1, i64 8
  %16 = load ptr, ptr %15, align 8, !tbaa !49
  %17 = getelementptr inbounds nuw i8, ptr %1, i64 16
  %18 = load ptr, ptr %17, align 8, !tbaa !49
  %19 = getelementptr inbounds nuw i8, ptr %0, i64 56
  %20 = load i32, ptr %19, align 8, !tbaa !50
  %21 = load i32, ptr %2, align 4, !tbaa !48
  %22 = getelementptr inbounds nuw i8, ptr %2, i64 4
  %23 = load i32, ptr %22, align 4, !tbaa !48
  tail call void %13(ptr noundef %14, ptr noundef %16, ptr noundef %18, ptr noundef %12, i32 noundef %20, i32 noundef %4, i32 noundef %21, i32 noundef %23, i32 noundef %9) #13
  ret i32 %4
}